; Function Attrs: mustprogress uwtable
define void @_ZN6casadi19DeserializingStream6unpackERb(ptr nocapture noundef nonnull readonly align 8 dereferenceable(41) %0, ptr nocapture noundef nonnull writeonly align 1 dereferenceable(1) %1) local_unnamed_addr #3 align 2 {
  %3 = alloca i8, align 1
  %4 = alloca i8, align 1
  tail call void @_ZN6casadi19DeserializingStream17assert_decorationEc(ptr noundef nonnull align 8 dereferenceable(41) %0, i8 noundef signext 98)
  call void @llvm.lifetime.start.p0(i64 1, ptr nonnull %3)
  %5 = getelementptr inbounds i8, ptr %0, i64 32
  %6 = load ptr, ptr %5, align 8
  %7 = call noundef nonnull align 8 dereferenceable(16) ptr @_ZNSi3getERc(ptr noundef nonnull align 8 dereferenceable(16) %6, ptr noundef nonnull align 1 dereferenceable(1) %4)
  %8 = load ptr, ptr %5, align 8
  %9 = call noundef nonnull align 8 dereferenceable(16) ptr @_ZNSi3getERc(ptr noundef nonnull align 8 dereferenceable(16) %8, ptr noundef nonnull align 1 dereferenceable(1) %3)
  %10 = load i8, ptr %4, align 1
  %11 = load i8, ptr %3, align 1
  %.neg = mul i8 %11, -16
  %12 = add i8 %10, -113
  call void @llvm.lifetime.end.p0(i64 1, ptr nonnull %3)
  %13 = icmp ne i8 %12, %.neg
  %14 = zext i1 %13 to i8
  store i8 %14, ptr %1, align 1
  ret void
}